; Function Attrs: mustprogress uwtable
define hidden noundef nonnull ptr @_ZN5boost6locale4util25create_gregorian_calendarERKNSt7__cxx1112basic_stringIcSt11char_traitsIcESaIcEEE(ptr noundef nonnull align 8 dereferenceable(32) %0) local_unnamed_addr #0 personality ptr @__gxx_personality_v0 {
  %2 = tail call noalias noundef nonnull dereferenceable(176) ptr @_Znwm(i64 noundef 176) #18
  invoke void @_ZN5boost6locale4util18gregorian_calendarC2ERKNSt7__cxx1112basic_stringIcSt11char_traitsIcESaIcEEE(ptr noundef nonnull align 8 dereferenceable(176) %2, ptr noundef nonnull align 8 dereferenceable(32) %0)
          to label %3 unwind label %4

3:                                                ; preds = %1
  ret ptr %2

4:                                                ; preds = %1
  %5 = landingpad { ptr, i32 }
          cleanup
  tail call void @_ZdlPvm(ptr noundef nonnull %2, i64 noundef 176) #19
  resume { ptr, i32 } %5
}